target datalayout = "e-m:e-p270:32:32-p271:32:32-p272:64:64-i64:64-i128:128-f80:128-n8:16:32:64-S128"
target triple = "x86_64-pc-linux-gnu"

; Function Attrs: nounwind uwtable
define internal void @legacy_teardown(ptr noundef %0) #0 {
  %2 = alloca ptr, align 8
  store ptr %0, ptr %2, align 8, !tbaa !13
  %3 = load ptr, ptr %2, align 8, !tbaa !13
  %4 = call ptr @ossl_prov_ctx_get0_libctx(ptr noundef %3)
  call void @OSSL_LIB_CTX_free(ptr noundef %4)
  %5 = load ptr, ptr %2, align 8, !tbaa !13
  call void @ossl_prov_ctx_free(ptr noundef %5)
  ret void
}

; Function Attrs: nounwind uwtable
define dso_local i32 @ossl_legacy_provider_init(ptr noundef %0, ptr noundef %1, ptr noundef %2, ptr noundef %3) #0 {
  %5 = alloca i32, align 4
  %6 = alloca ptr, align 8
  %7 = alloca ptr, align 8
  %8 = alloca ptr, align 8
  %9 = alloca ptr, align 8
  %10 = alloca ptr, align 8
  %11 = alloca i32, align 4
  store ptr %0, ptr %6, align 8, !tbaa !4
  store ptr %1, ptr %7, align 8, !tbaa !9
  store ptr %2, ptr %8, align 8, !tbaa !11
  store ptr %3, ptr %9, align 8, !tbaa !13
  call void @llvm.lifetime.start.p0(i64 8, ptr %10) #3
  store ptr null, ptr %10, align 8, !tbaa !14
  %12 = call ptr @ossl_prov_ctx_new()
  %13 = load ptr, ptr %9, align 8, !tbaa !13
  store ptr %12, ptr %13, align 8, !tbaa !13
  %14 = icmp eq ptr %12, null
  br i1 %14, label %20, label %15

15:                                               ; preds = %4
  %16 = load ptr, ptr %6, align 8, !tbaa !4
  %17 = load ptr, ptr %7, align 8, !tbaa !9
  %18 = call ptr @OSSL_LIB_CTX_new_child(ptr noundef %16, ptr noundef %17)
  store ptr %18, ptr %10, align 8, !tbaa !14
  %19 = icmp eq ptr %18, null
  br i1 %19, label %20, label %25

20:                                               ; preds = %15, %4
  %21 = load ptr, ptr %10, align 8, !tbaa !14
  call void @OSSL_LIB_CTX_free(ptr noundef %21)
  %22 = load ptr, ptr %9, align 8, !tbaa !13
  %23 = load ptr, ptr %22, align 8, !tbaa !13
  call void @legacy_teardown(ptr noundef %23)
  %24 = load ptr, ptr %9, align 8, !tbaa !13
  store ptr null, ptr %24, align 8, !tbaa !13
  store i32 0, ptr %5, align 4
  store i32 1, ptr %11, align 4
  br label %33

25:                                               ; preds = %15
  %26 = load ptr, ptr %9, align 8, !tbaa !13
  %27 = load ptr, ptr %26, align 8, !tbaa !13
  %28 = load ptr, ptr %10, align 8, !tbaa !14
  call void @ossl_prov_ctx_set0_libctx(ptr noundef %27, ptr noundef %28)
  %29 = load ptr, ptr %9, align 8, !tbaa !13
  %30 = load ptr, ptr %29, align 8, !tbaa !13
  %31 = load ptr, ptr %6, align 8, !tbaa !4
  call void @ossl_prov_ctx_set0_handle(ptr noundef %30, ptr noundef %31)
  %32 = load ptr, ptr %8, align 8, !tbaa !11
  store ptr @legacy_dispatch_table, ptr %32, align 8, !tbaa !9
  store i32 1, ptr %5, align 4
  store i32 1, ptr %11, align 4
  br label %33

33:                                               ; preds = %25, %20
  call void @llvm.lifetime.end.p0(i64 8, ptr %10) #3
  %34 = load i32, ptr %5, align 4
  ret i32 %34
}