; Function Attrs: nounwind uwtable
define dso_local range(i32 0, 2) i32 @ossl_legacy_provider_init(ptr noundef %0, ptr noundef %1, ptr noundef writeonly captures(none) %2, ptr noundef captures(none) initializes((0, 8)) %3) local_unnamed_addr #0 {
  %5 = tail call ptr @ossl_prov_ctx_new() #4
  store ptr %5, ptr %3, align 8, !tbaa !4
  %6 = icmp eq ptr %5, null
  br i1 %6, label %10, label %7

7:                                                ; preds = %4
  %8 = tail call ptr @OSSL_LIB_CTX_new_child(ptr noundef %0, ptr noundef %1) #4
  %9 = icmp eq ptr %8, null
  br i1 %9, label %10, label %13

10:                                               ; preds = %7, %4
  tail call void @OSSL_LIB_CTX_free(ptr noundef null) #4
  %11 = load ptr, ptr %3, align 8, !tbaa !4
  %12 = tail call ptr @ossl_prov_ctx_get0_libctx(ptr noundef %11) #4
  tail call void @OSSL_LIB_CTX_free(ptr noundef %12) #4
  tail call void @ossl_prov_ctx_free(ptr noundef %11) #4
  store ptr null, ptr %3, align 8, !tbaa !4
  br label %16

13:                                               ; preds = %7
  %14 = load ptr, ptr %3, align 8, !tbaa !4
  tail call void @ossl_prov_ctx_set0_libctx(ptr noundef %14, ptr noundef nonnull %8) #4
  %15 = load ptr, ptr %3, align 8, !tbaa !4
  tail call void @ossl_prov_ctx_set0_handle(ptr noundef %15, ptr noundef %0) #4
  store ptr @legacy_dispatch_table, ptr %2, align 8, !tbaa !8
  br label %16

16:                                               ; preds = %13, %10
  %.011 = phi i32 [ 0, %10 ], [ 1, %13 ]
  ret i32 %.011
}